target datalayout = "e-m:e-p270:32:32-p271:32:32-p272:64:64-i64:64-i128:128-f80:128-n8:16:32:64-S128"
target triple = "x86_64-pc-linux-gnu"

%struct.expert_field = type { i32, i32 }
%struct.ext_value_string_t = type { i32, ptr, i32 }

@ansi_a_elem_1_strings = global ptr null, align 8
@.str.282 = private unnamed_addr constant [1 x i8] zeroinitializer, align 1
@ei_ansi_a_extraneous_data = internal global %struct.expert_field zeroinitializer, align 4
@ei_ansi_a_missing_mand_elem = internal global %struct.expert_field zeroinitializer, align 4
@.str.1753 = private unnamed_addr constant [71 x i8] c"Missing Mandatory element (0x%02x) %s%s, rest of dissection is suspect\00", align 1

; Function Attrs: null_pointer_is_valid sspstrong uwtable
define internal void @bsmap_add_srvc_noti(ptr noundef %0, ptr noundef %1, ptr noundef %2, i32 noundef %3, i32 noundef %4, ptr noundef %5) #1 {
  %7 = alloca ptr, align 8
  %8 = alloca ptr, align 8
  %9 = alloca ptr, align 8
  %10 = alloca i32, align 4
  %11 = alloca i32, align 4
  %12 = alloca ptr, align 8
  %13 = alloca i32, align 4
  %14 = alloca i32, align 4
  %15 = alloca i32, align 4
  %16 = alloca i32, align 4
  store ptr %0, ptr %7, align 8
  store ptr %1, ptr %8, align 8
  store ptr %2, ptr %9, align 8
  store i32 %3, ptr %10, align 4
  store i32 %4, ptr %11, align 4
  store ptr %5, ptr %12, align 8
  call void @llvm.lifetime.start.p0(i64 4, ptr %13) #8
  call void @llvm.lifetime.start.p0(i64 4, ptr %14) #8
  call void @llvm.lifetime.start.p0(i64 4, ptr %15) #8
  %17 = load i32, ptr %10, align 4
  store i32 %17, ptr %13, align 4
  %18 = load i32, ptr %11, align 4
  store i32 %18, ptr %15, align 4
  %19 = load ptr, ptr %7, align 8
  %20 = load ptr, ptr %8, align 8
  %21 = load ptr, ptr %9, align 8
  %22 = load i32, ptr %13, align 4
  %23 = load i32, ptr %15, align 4
  %24 = load ptr, ptr %12, align 8
  %25 = call zeroext i16 @elem_tlv(ptr noundef %19, ptr noundef %20, ptr noundef %21, i32 noundef 47, i32 noundef %22, i32 noundef %23, ptr noundef @.str.282, ptr noundef %24)
  %26 = zext i16 %25 to i32
  store i32 %26, ptr %14, align 4
  %27 = icmp ugt i32 %26, 0
  br i1 %27, label %28, label %35

28:                                               ; preds = %6
  %29 = load i32, ptr %14, align 4
  %30 = load i32, ptr %13, align 4
  %31 = add i32 %30, %29
  store i32 %31, ptr %13, align 4
  %32 = load i32, ptr %14, align 4
  %33 = load i32, ptr %15, align 4
  %34 = sub i32 %33, %32
  store i32 %34, ptr %15, align 4
  br label %49

35:                                               ; preds = %6
  %36 = load ptr, ptr %9, align 8
  %37 = load ptr, ptr %8, align 8
  %38 = load ptr, ptr %7, align 8
  %39 = load i32, ptr %13, align 4
  %40 = load ptr, ptr @ansi_a_elem_1_strings, align 8
  %41 = getelementptr %struct.ext_value_string_t, ptr %40, i64 47
  %42 = getelementptr inbounds nuw %struct.ext_value_string_t, ptr %41, i32 0, i32 0
  %43 = load i32, ptr %42, align 8
  %44 = load ptr, ptr @ansi_a_elem_1_strings, align 8
  %45 = getelementptr %struct.ext_value_string_t, ptr %44, i64 47
  %46 = getelementptr inbounds nuw %struct.ext_value_string_t, ptr %45, i32 0, i32 1
  %47 = load ptr, ptr %46, align 8
  %48 = call ptr (ptr, ptr, ptr, ptr, i32, i32, ptr, ...) @proto_tree_add_expert_format(ptr noundef %36, ptr noundef %37, ptr noundef @ei_ansi_a_missing_mand_elem, ptr noundef %38, i32 noundef %39, i32 noundef 0, ptr noundef @.str.1753, i32 noundef %43, ptr noundef %47, ptr noundef @.str.282)
  br label %49

49:                                               ; preds = %35, %28
  %50 = load i32, ptr %15, align 4
  %51 = icmp ule i32 %50, 0
  br i1 %51, label %52, label %53

52:                                               ; preds = %49
  store i32 1, ptr %16, align 4
  br label %124

53:                                               ; preds = %49
  %54 = load ptr, ptr %7, align 8
  %55 = load ptr, ptr %8, align 8
  %56 = load ptr, ptr %9, align 8
  %57 = load i32, ptr %13, align 4
  %58 = load ptr, ptr %12, align 8
  %59 = call zeroext i16 @elem_tv(ptr noundef %54, ptr noundef %55, ptr noundef %56, i32 noundef 67, i32 noundef %57, ptr noundef @.str.282, ptr noundef %58)
  %60 = zext i16 %59 to i32
  store i32 %60, ptr %14, align 4
  %61 = icmp ugt i32 %60, 0
  br i1 %61, label %62, label %69

62:                                               ; preds = %53
  %63 = load i32, ptr %14, align 4
  %64 = load i32, ptr %13, align 4
  %65 = add i32 %64, %63
  store i32 %65, ptr %13, align 4
  %66 = load i32, ptr %14, align 4
  %67 = load i32, ptr %15, align 4
  %68 = sub i32 %67, %66
  store i32 %68, ptr %15, align 4
  br label %83

69:                                               ; preds = %53
  %70 = load ptr, ptr %9, align 8
  %71 = load ptr, ptr %8, align 8
  %72 = load ptr, ptr %7, align 8
  %73 = load i32, ptr %13, align 4
  %74 = load ptr, ptr @ansi_a_elem_1_strings, align 8
  %75 = getelementptr %struct.ext_value_string_t, ptr %74, i64 67
  %76 = getelementptr inbounds nuw %struct.ext_value_string_t, ptr %75, i32 0, i32 0
  %77 = load i32, ptr %76, align 8
  %78 = load ptr, ptr @ansi_a_elem_1_strings, align 8
  %79 = getelementptr %struct.ext_value_string_t, ptr %78, i64 67
  %80 = getelementptr inbounds nuw %struct.ext_value_string_t, ptr %79, i32 0, i32 1
  %81 = load ptr, ptr %80, align 8
  %82 = call ptr (ptr, ptr, ptr, ptr, i32, i32, ptr, ...) @proto_tree_add_expert_format(ptr noundef %70, ptr noundef %71, ptr noundef @ei_ansi_a_missing_mand_elem, ptr noundef %72, i32 noundef %73, i32 noundef 0, ptr noundef @.str.1753, i32 noundef %77, ptr noundef %81, ptr noundef @.str.282)
  br label %83

83:                                               ; preds = %69, %62
  %84 = load i32, ptr %15, align 4
  %85 = icmp ule i32 %84, 0
  br i1 %85, label %86, label %87

86:                                               ; preds = %83
  store i32 1, ptr %16, align 4
  br label %124

87:                                               ; preds = %83
  %88 = load ptr, ptr %7, align 8
  %89 = load ptr, ptr %8, align 8
  %90 = load ptr, ptr %9, align 8
  %91 = load i32, ptr %13, align 4
  %92 = load i32, ptr %15, align 4
  %93 = load ptr, ptr %12, align 8
  %94 = call zeroext i16 @elem_tlv(ptr noundef %88, ptr noundef %89, ptr noundef %90, i32 noundef 86, i32 noundef %91, i32 noundef %92, ptr noundef @.str.282, ptr noundef %93)
  %95 = zext i16 %94 to i32
  store i32 %95, ptr %14, align 4
  %96 = icmp ugt i32 %95, 0
  br i1 %96, label %97, label %104

97:                                               ; preds = %87
  %98 = load i32, ptr %14, align 4
  %99 = load i32, ptr %13, align 4
  %100 = add i32 %99, %98
  store i32 %100, ptr %13, align 4
  %101 = load i32, ptr %14, align 4
  %102 = load i32, ptr %15, align 4
  %103 = sub i32 %102, %101
  store i32 %103, ptr %15, align 4
  br label %104

104:                                              ; preds = %97, %87
  %105 = load i32, ptr %15, align 4
  %106 = icmp ule i32 %105, 0
  br i1 %106, label %107, label %108

107:                                              ; preds = %104
  store i32 1, ptr %16, align 4
  br label %124

108:                                              ; preds = %104
  %109 = load i32, ptr %15, align 4
  %110 = icmp ugt i32 %109, 0
  br i1 %110, label %111, label %123

111:                                              ; preds = %108
  %112 = load ptr, ptr %9, align 8
  %113 = load ptr, ptr %8, align 8
  %114 = load ptr, ptr %7, align 8
  %115 = load i32, ptr %13, align 4
  %116 = load i32, ptr %15, align 4
  %117 = sub i32 %116, 0
  %118 = call ptr @proto_tree_add_expert(ptr noundef %112, ptr noundef %113, ptr noundef @ei_ansi_a_extraneous_data, ptr noundef %114, i32 noundef %115, i32 noundef %117)
  %119 = load i32, ptr %15, align 4
  %120 = sub i32 %119, 0
  %121 = load i32, ptr %13, align 4
  %122 = add i32 %121, %120
  store i32 %122, ptr %13, align 4
  br label %123

123:                                              ; preds = %111, %108
  store i32 0, ptr %16, align 4
  br label %124

124:                                              ; preds = %123, %107, %86, %52
  call void @llvm.lifetime.end.p0(i64 4, ptr %15) #8
  call void @llvm.lifetime.end.p0(i64 4, ptr %14) #8
  call void @llvm.lifetime.end.p0(i64 4, ptr %13) #8
  %125 = load i32, ptr %16, align 4
  switch i32 %125, label %127 [
    i32 0, label %126
    i32 1, label %126
  ]

126:                                              ; preds = %124, %124
  ret void

127:                                              ; preds = %124
  unreachable
}