; Function Attrs: null_pointer_is_valid sspstrong uwtable
define internal void @bsmap_add_srvc_noti(ptr noundef %0, ptr noundef %1, ptr noundef %2, i32 noundef %3, i32 noundef %4, ptr noundef %5) #1 {
  %7 = tail call fastcc zeroext i16 @elem_tlv(ptr noundef %0, ptr noundef %1, ptr noundef %2, i32 noundef 47, i32 noundef %3, ptr noundef nonnull @.str.282, ptr noundef %5)
  %.not = icmp eq i16 %7, 0
  br i1 %.not, label %12, label %8

8:                                                ; preds = %6
  %9 = zext i16 %7 to i32
  %10 = add i32 %3, %9
  %11 = sub i32 %4, %9
  br label %19

12:                                               ; preds = %6
  %13 = load ptr, ptr @ansi_a_elem_1_strings, align 8
  %14 = getelementptr i8, ptr %13, i64 1128
  %15 = load i32, ptr %14, align 8
  %16 = getelementptr i8, ptr %13, i64 1136
  %17 = load ptr, ptr %16, align 8
  %18 = tail call ptr (ptr, ptr, ptr, ptr, i32, i32, ptr, ...) @proto_tree_add_expert_format(ptr noundef %2, ptr noundef %1, ptr noundef nonnull @ei_ansi_a_missing_mand_elem, ptr noundef %0, i32 noundef %3, i32 noundef 0, ptr noundef nonnull @.str.1753, i32 noundef %15, ptr noundef %17, ptr noundef nonnull @.str.282)
  br label %19

19:                                               ; preds = %12, %8
  %.049 = phi i32 [ %10, %8 ], [ %3, %12 ]
  %.0 = phi i32 [ %11, %8 ], [ %4, %12 ]
  %20 = icmp eq i32 %.0, 0
  br i1 %20, label %42, label %21

21:                                               ; preds = %19
  %22 = tail call fastcc zeroext i16 @elem_tv(ptr noundef %0, ptr noundef %1, ptr noundef %2, i32 noundef 67, i32 noundef %.049, ptr noundef %5)
  %.not55 = icmp eq i16 %22, 0
  br i1 %.not55, label %.thread, label %29

.thread:                                          ; preds = %21
  %23 = load ptr, ptr @ansi_a_elem_1_strings, align 8
  %24 = getelementptr i8, ptr %23, i64 1608
  %25 = load i32, ptr %24, align 8
  %26 = getelementptr i8, ptr %23, i64 1616
  %27 = load ptr, ptr %26, align 8
  %28 = tail call ptr (ptr, ptr, ptr, ptr, i32, i32, ptr, ...) @proto_tree_add_expert_format(ptr noundef %2, ptr noundef %1, ptr noundef nonnull @ei_ansi_a_missing_mand_elem, ptr noundef %0, i32 noundef %.049, i32 noundef 0, ptr noundef nonnull @.str.1753, i32 noundef %25, ptr noundef %27, ptr noundef nonnull @.str.282)
  br label %34

29:                                               ; preds = %21
  %30 = zext i16 %22 to i32
  %31 = add i32 %.049, %30
  %32 = sub i32 %.0, %30
  %33 = icmp eq i32 %32, 0
  br i1 %33, label %42, label %34

34:                                               ; preds = %.thread, %29
  %.160 = phi i32 [ %.0, %.thread ], [ %32, %29 ]
  %.15059 = phi i32 [ %.049, %.thread ], [ %31, %29 ]
  %35 = tail call fastcc zeroext i16 @elem_tlv(ptr noundef %0, ptr noundef %1, ptr noundef %2, i32 noundef 86, i32 noundef %.15059, ptr noundef nonnull @.str.282, ptr noundef %5)
  %36 = zext i16 %35 to i32
  %37 = icmp eq i32 %.160, %36
  br i1 %37, label %42, label %38

38:                                               ; preds = %34
  %39 = sub i32 %.160, %36
  %40 = add i32 %.15059, %36
  %41 = tail call ptr @proto_tree_add_expert(ptr noundef %2, ptr noundef %1, ptr noundef nonnull @ei_ansi_a_extraneous_data, ptr noundef %0, i32 noundef %40, i32 noundef %39)
  br label %42

42:                                               ; preds = %34, %29, %19, %38
  ret void
}